target datalayout = "e-m:e-p270:32:32-p271:32:32-p272:64:64-i64:64-i128:128-f80:128-n8:16:32:64-S128"
target triple = "x86_64-pc-linux-gnu"

%"class.net::TcpCubicSenderBase" = type <{ %"class.net::SendAlgorithmInterface", %"class.net::HybridSlowStart", %"class.net::PrrSender", ptr, ptr, i8, [3 x i8], i32, i64, i64, i64, i8, i8, i8, i8, i8, [3 x i8] }>
%"class.net::SendAlgorithmInterface" = type { ptr }
%"class.net::HybridSlowStart" = type { i8, i32, i64, i64, i32, %"class.net::QuicTime::Delta" }
%"class.net::QuicTime::Delta" = type { %"class.base::TimeDelta", i64 }
%"class.base::TimeDelta" = type { i64 }
%"class.net::PrrSender" = type { i64, i64, i64, i64 }
%"class.net::QuicBandwidth" = type { i64 }
%"class.net::RttStats" = type { %"class.net::QuicTime::Delta", %"class.net::QuicTime::Delta", %"class.net::QuicTime::Delta", %"class.net::QuicTime::Delta", %"class.net::QuicTime::Delta", i64, %"class.net::QuicTime::Delta", %"class.net::QuicTime", i32, %"class.net::WindowedFilter" }
%"class.net::QuicTime" = type { i64 }
%"class.net::WindowedFilter" = type { %"class.net::QuicTime::Delta", %"class.net::QuicTime::Delta", [3 x %"struct.net::WindowedFilter<net::QuicTime::Delta, net::MinFilter<net::QuicTime::Delta>, net::QuicTime, net::QuicTime::Delta>::Sample"] }
%"struct.net::WindowedFilter<net::QuicTime::Delta, net::MinFilter<net::QuicTime::Delta>, net::QuicTime, net::QuicTime::Delta>::Sample" = type { %"class.net::QuicTime::Delta", %"class.net::QuicTime" }

; Function Attrs: mustprogress nounwind uwtable
define linkonce_odr void @_ZN4base9TimeDeltaC2Ev(ptr noundef nonnull align 8 dereferenceable(8) %0) unnamed_addr #3 comdat align 2 {
  %2 = alloca ptr, align 8
  store ptr %0, ptr %2, align 8, !tbaa !112
  %3 = load ptr, ptr %2, align 8
  %4 = getelementptr inbounds nuw %"class.base::TimeDelta", ptr %3, i32 0, i32 0
  store i64 0, ptr %4, align 8, !tbaa !114
  ret void
}

; Function Attrs: mustprogress nounwind uwtable
define linkonce_odr noundef i64 @_ZSt7llroundf(float noundef %0) #3 comdat {
  %2 = alloca float, align 4
  store float %0, ptr %2, align 4, !tbaa !104
  %3 = load float, ptr %2, align 4, !tbaa !104
  %4 = call i64 @llroundf(float noundef %3) #13, !tbaa !66
  ret i64 %4
}

; Function Attrs: mustprogress nounwind uwtable
define linkonce_odr noundef nonnull align 8 dereferenceable(8) ptr @_ZN4base9TimeDeltaaSES0_(ptr noundef nonnull align 8 dereferenceable(8) %0, i64 %1) #3 comdat align 2 {
  %3 = alloca %"class.base::TimeDelta", align 8
  %4 = alloca ptr, align 8
  %5 = getelementptr inbounds nuw %"class.base::TimeDelta", ptr %3, i32 0, i32 0
  store i64 %1, ptr %5, align 8
  store ptr %0, ptr %4, align 8, !tbaa !112
  %6 = load ptr, ptr %4, align 8
  %7 = getelementptr inbounds nuw %"class.base::TimeDelta", ptr %3, i32 0, i32 0
  %8 = load i64, ptr %7, align 8, !tbaa !114
  %9 = getelementptr inbounds nuw %"class.base::TimeDelta", ptr %6, i32 0, i32 0
  store i64 %8, ptr %9, align 8, !tbaa !114
  ret ptr %6
}

; Function Attrs: inlinehint mustprogress uwtable
define linkonce_odr void @_ZN3net8QuicTime5DeltaC2El(ptr noundef nonnull align 8 dereferenceable(16) %0, i64 noundef %1) unnamed_addr #6 comdat align 2 {
  %3 = alloca ptr, align 8
  %4 = alloca i64, align 8
  store ptr %0, ptr %3, align 8, !tbaa !98
  store i64 %1, ptr %4, align 8, !tbaa !56
  %5 = load ptr, ptr %3, align 8
  %6 = getelementptr inbounds nuw %"class.net::QuicTime::Delta", ptr %5, i32 0, i32 0
  call void @_ZN4base9TimeDeltaC2Ev(ptr noundef nonnull align 8 dereferenceable(8) %6)
  %7 = getelementptr inbounds nuw %"class.net::QuicTime::Delta", ptr %5, i32 0, i32 1
  %8 = load i64, ptr %4, align 8, !tbaa !56
  store i64 %8, ptr %7, align 8, !tbaa !100
  ret void
}

; Function Attrs: inlinehint mustprogress uwtable
define linkonce_odr i64 @_ZN3netmlENS_13QuicBandwidthEf(i64 %0, float noundef %1) #6 comdat {
  %3 = alloca %"class.net::QuicBandwidth", align 8
  %4 = alloca %"class.net::QuicBandwidth", align 8
  %5 = alloca float, align 4
  %6 = getelementptr inbounds nuw %"class.net::QuicBandwidth", ptr %4, i32 0, i32 0
  store i64 %0, ptr %6, align 8
  store float %1, ptr %5, align 4, !tbaa !104
  %7 = getelementptr inbounds nuw %"class.net::QuicBandwidth", ptr %4, i32 0, i32 0
  %8 = load i64, ptr %7, align 8, !tbaa !106
  %9 = sitofp i64 %8 to float
  %10 = load float, ptr %5, align 4, !tbaa !104
  %11 = fmul float %9, %10
  %12 = call noundef i64 @_ZSt7llroundf(float noundef %11)
  call void @_ZN3net13QuicBandwidthC1El(ptr noundef nonnull align 8 dereferenceable(8) %3, i64 noundef %12)
  %13 = getelementptr inbounds nuw %"class.net::QuicBandwidth", ptr %3, i32 0, i32 0
  %14 = load i64, ptr %13, align 8
  ret i64 %14
}

; Function Attrs: inlinehint mustprogress uwtable
define linkonce_odr i64 @_ZN3netmlEfNS_13QuicBandwidthE(float noundef %0, i64 %1) #6 comdat {
  %3 = alloca %"class.net::QuicBandwidth", align 8
  %4 = alloca %"class.net::QuicBandwidth", align 8
  %5 = alloca float, align 4
  %6 = alloca %"class.net::QuicBandwidth", align 8
  %7 = getelementptr inbounds nuw %"class.net::QuicBandwidth", ptr %4, i32 0, i32 0
  store i64 %1, ptr %7, align 8
  store float %0, ptr %5, align 4, !tbaa !104
  call void @llvm.memcpy.p0.p0.i64(ptr align 8 %6, ptr align 8 %4, i64 8, i1 false), !tbaa.struct !55
  %8 = load float, ptr %5, align 4, !tbaa !104
  %9 = getelementptr inbounds nuw %"class.net::QuicBandwidth", ptr %6, i32 0, i32 0
  %10 = load i64, ptr %9, align 8
  %11 = call i64 @_ZN3netmlENS_13QuicBandwidthEf(i64 %10, float noundef %8)
  %12 = getelementptr inbounds nuw %"class.net::QuicBandwidth", ptr %3, i32 0, i32 0
  store i64 %11, ptr %12, align 8
  %13 = getelementptr inbounds nuw %"class.net::QuicBandwidth", ptr %3, i32 0, i32 0
  %14 = load i64, ptr %13, align 8
  ret i64 %14
}

; Function Attrs: inlinehint mustprogress uwtable
define linkonce_odr noundef nonnull align 8 dereferenceable(16) ptr @_ZN3net8QuicTime5DeltaaSEOS1_(ptr noundef nonnull align 8 dereferenceable(16) %0, ptr noundef nonnull align 8 dereferenceable(16) %1) #6 comdat align 2 {
  %3 = alloca ptr, align 8
  %4 = alloca ptr, align 8
  %5 = alloca %"class.base::TimeDelta", align 8
  store ptr %0, ptr %3, align 8, !tbaa !98
  store ptr %1, ptr %4, align 8, !tbaa !98
  %6 = load ptr, ptr %3, align 8
  %7 = getelementptr inbounds nuw %"class.net::QuicTime::Delta", ptr %6, i32 0, i32 0
  %8 = load ptr, ptr %4, align 8, !tbaa !98
  %9 = getelementptr inbounds nuw %"class.net::QuicTime::Delta", ptr %8, i32 0, i32 0
  call void @llvm.memcpy.p0.p0.i64(ptr align 8 %5, ptr align 8 %9, i64 8, i1 false), !tbaa.struct !55
  %10 = getelementptr inbounds nuw %"class.base::TimeDelta", ptr %5, i32 0, i32 0
  %11 = load i64, ptr %10, align 8
  %12 = call noundef nonnull align 8 dereferenceable(8) ptr @_ZN4base9TimeDeltaaSES0_(ptr noundef nonnull align 8 dereferenceable(8) %7, i64 %11)
  %13 = load ptr, ptr %4, align 8, !tbaa !98
  %14 = getelementptr inbounds nuw %"class.net::QuicTime::Delta", ptr %13, i32 0, i32 1
  %15 = load i64, ptr %14, align 8, !tbaa !100
  %16 = getelementptr inbounds nuw %"class.net::QuicTime::Delta", ptr %6, i32 0, i32 1
  store i64 %15, ptr %16, align 8, !tbaa !100
  ret ptr %6
}

; Function Attrs: inlinehint mustprogress uwtable
define linkonce_odr { i64, i64 } @_ZN3net8QuicTime5Delta16FromMicrosecondsEl(i64 noundef %0) #6 comdat align 2 {
  %2 = alloca %"class.net::QuicTime::Delta", align 8
  %3 = alloca i64, align 8
  store i64 %0, ptr %3, align 8, !tbaa !56
  %4 = load i64, ptr %3, align 8, !tbaa !56
  call void @_ZN3net8QuicTime5DeltaC2El(ptr noundef nonnull align 8 dereferenceable(16) %2, i64 noundef %4)
  %5 = load { i64, i64 }, ptr %2, align 8
  ret { i64, i64 } %5
}

; Function Attrs: mustprogress nounwind uwtable
define linkonce_odr noundef i64 @_ZNK3net8RttStats14initial_rtt_usEv(ptr noundef nonnull align 8 dereferenceable(224) %0) #3 comdat align 2 {
  %2 = alloca ptr, align 8
  store ptr %0, ptr %2, align 8, !tbaa !10
  %3 = load ptr, ptr %2, align 8
  %4 = getelementptr inbounds nuw %"class.net::RttStats", ptr %3, i32 0, i32 5
  %5 = load i64, ptr %4, align 8, !tbaa !101
  ret i64 %5
}

; Function Attrs: inlinehint mustprogress nounwind uwtable
define linkonce_odr noundef zeroext i1 @_ZNK3net8QuicTime5Delta6IsZeroEv(ptr noundef nonnull align 8 dereferenceable(16) %0) #1 comdat align 2 {
  %2 = alloca ptr, align 8
  store ptr %0, ptr %2, align 8, !tbaa !98
  %3 = load ptr, ptr %2, align 8
  %4 = getelementptr inbounds nuw %"class.net::QuicTime::Delta", ptr %3, i32 0, i32 1
  %5 = load i64, ptr %4, align 8, !tbaa !100
  %6 = icmp eq i64 %5, 0
  ret i1 %6
}

; Function Attrs: mustprogress nounwind uwtable
define linkonce_odr { i64, i64 } @_ZNK3net8RttStats12smoothed_rttEv(ptr noundef nonnull align 8 dereferenceable(224) %0) #3 comdat align 2 {
  %2 = alloca %"class.net::QuicTime::Delta", align 8
  %3 = alloca ptr, align 8
  store ptr %0, ptr %3, align 8, !tbaa !10
  %4 = load ptr, ptr %3, align 8
  %5 = getelementptr inbounds nuw %"class.net::RttStats", ptr %4, i32 0, i32 2
  call void @llvm.memcpy.p0.p0.i64(ptr align 8 %2, ptr align 8 %5, i64 16, i1 false), !tbaa.struct !57
  %6 = load { i64, i64 }, ptr %2, align 8
  ret { i64, i64 } %6
}

; Function Attrs: mustprogress uwtable
define i64 @_ZNK3net18TcpCubicSenderBase10PacingRateEm(ptr noundef nonnull align 8 dereferenceable(141) %0, i64 noundef %1) unnamed_addr #0 align 2 {
  %3 = alloca %"class.net::QuicBandwidth", align 8
  %4 = alloca ptr, align 8
  %5 = alloca i64, align 8
  %6 = alloca %"class.net::QuicTime::Delta", align 8
  %7 = alloca %"class.net::QuicTime::Delta", align 8
  %8 = alloca %"class.net::QuicBandwidth", align 8
  %9 = alloca %"class.net::QuicTime::Delta", align 8
  %10 = alloca %"class.net::QuicBandwidth", align 8
  %11 = alloca i32, align 4
  %12 = alloca %"class.net::QuicBandwidth", align 8
  store ptr %0, ptr %4, align 8, !tbaa !3
  store i64 %1, ptr %5, align 8, !tbaa !56
  %13 = load ptr, ptr %4, align 8
  call void @llvm.lifetime.start.p0(i64 16, ptr %6) #13
  %14 = getelementptr inbounds nuw %"class.net::TcpCubicSenderBase", ptr %13, i32 0, i32 3
  %15 = load ptr, ptr %14, align 8, !tbaa !18
  %16 = call { i64, i64 } @_ZNK3net8RttStats12smoothed_rttEv(ptr noundef nonnull align 8 dereferenceable(224) %15)
  %17 = getelementptr inbounds nuw { i64, i64 }, ptr %6, i32 0, i32 0
  %18 = extractvalue { i64, i64 } %16, 0
  store i64 %18, ptr %17, align 8
  %19 = getelementptr inbounds nuw { i64, i64 }, ptr %6, i32 0, i32 1
  %20 = extractvalue { i64, i64 } %16, 1
  store i64 %20, ptr %19, align 8
  %21 = call noundef zeroext i1 @_ZNK3net8QuicTime5Delta6IsZeroEv(ptr noundef nonnull align 8 dereferenceable(16) %6)
  br i1 %21, label %22, label %32

22:                                               ; preds = %2
  call void @llvm.lifetime.start.p0(i64 16, ptr %7) #13
  %23 = getelementptr inbounds nuw %"class.net::TcpCubicSenderBase", ptr %13, i32 0, i32 3
  %24 = load ptr, ptr %23, align 8, !tbaa !18
  %25 = call noundef i64 @_ZNK3net8RttStats14initial_rtt_usEv(ptr noundef nonnull align 8 dereferenceable(224) %24)
  %26 = call { i64, i64 } @_ZN3net8QuicTime5Delta16FromMicrosecondsEl(i64 noundef %25)
  %27 = getelementptr inbounds nuw { i64, i64 }, ptr %7, i32 0, i32 0
  %28 = extractvalue { i64, i64 } %26, 0
  store i64 %28, ptr %27, align 8
  %29 = getelementptr inbounds nuw { i64, i64 }, ptr %7, i32 0, i32 1
  %30 = extractvalue { i64, i64 } %26, 1
  store i64 %30, ptr %29, align 8
  %31 = call noundef nonnull align 8 dereferenceable(16) ptr @_ZN3net8QuicTime5DeltaaSEOS1_(ptr noundef nonnull align 8 dereferenceable(16) %6, ptr noundef nonnull align 8 dereferenceable(16) %7)
  call void @llvm.lifetime.end.p0(i64 16, ptr %7) #13
  br label %32

32:                                               ; preds = %22, %2
  call void @llvm.lifetime.start.p0(i64 8, ptr %8) #13
  %33 = load ptr, ptr %13, align 8, !tbaa !16
  %34 = getelementptr inbounds ptr, ptr %33, i64 12
  %35 = load ptr, ptr %34, align 8
  %36 = call noundef i64 %35(ptr noundef nonnull align 8 dereferenceable(8) %13)
  call void @llvm.memcpy.p0.p0.i64(ptr align 8 %9, ptr align 8 %6, i64 16, i1 false), !tbaa.struct !57
  %37 = getelementptr inbounds nuw { i64, i64 }, ptr %9, i32 0, i32 0
  %38 = load i64, ptr %37, align 8
  %39 = getelementptr inbounds nuw { i64, i64 }, ptr %9, i32 0, i32 1
  %40 = load i64, ptr %39, align 8
  %41 = call i64 @_ZN3net13QuicBandwidth21FromBytesAndTimeDeltaEmNS_8QuicTime5DeltaE(i64 noundef %36, i64 %38, i64 %40)
  %42 = getelementptr inbounds nuw %"class.net::QuicBandwidth", ptr %8, i32 0, i32 0
  store i64 %41, ptr %42, align 8
  %43 = getelementptr inbounds nuw %"class.net::TcpCubicSenderBase", ptr %13, i32 0, i32 14
  %44 = load i8, ptr %43, align 1, !tbaa !39, !range !29, !noundef !30
  %45 = trunc i8 %44 to i1
  br i1 %45, label %46, label %58

46:                                               ; preds = %32
  %47 = load i64, ptr %5, align 8, !tbaa !56
  %48 = load ptr, ptr %13, align 8, !tbaa !16
  %49 = getelementptr inbounds ptr, ptr %48, i64 12
  %50 = load ptr, ptr %49, align 8
  %51 = call noundef i64 %50(ptr noundef nonnull align 8 dereferenceable(8) %13)
  %52 = icmp ugt i64 %47, %51
  br i1 %52, label %53, label %58

53:                                               ; preds = %46
  call void @llvm.memcpy.p0.p0.i64(ptr align 8 %10, ptr align 8 %8, i64 8, i1 false), !tbaa.struct !55
  %54 = getelementptr inbounds nuw %"class.net::QuicBandwidth", ptr %10, i32 0, i32 0
  %55 = load i64, ptr %54, align 8
  %56 = call i64 @_ZN3netmlEfNS_13QuicBandwidthE(float noundef 7.500000e-01, i64 %55)
  %57 = getelementptr inbounds nuw %"class.net::QuicBandwidth", ptr %3, i32 0, i32 0
  store i64 %56, ptr %57, align 8
  store i32 1, ptr %11, align 4
  br label %83

58:                                               ; preds = %46, %32
  call void @llvm.memcpy.p0.p0.i64(ptr align 8 %12, ptr align 8 %8, i64 8, i1 false), !tbaa.struct !55
  %59 = load ptr, ptr %13, align 8, !tbaa !16
  %60 = getelementptr inbounds ptr, ptr %59, i64 13
  %61 = load ptr, ptr %60, align 8
  %62 = call noundef zeroext i1 %61(ptr noundef nonnull align 8 dereferenceable(141) %13)
  br i1 %62, label %63, label %64

63:                                               ; preds = %58
  br label %76

64:                                               ; preds = %58
  %65 = getelementptr inbounds nuw %"class.net::TcpCubicSenderBase", ptr %13, i32 0, i32 15
  %66 = load i8, ptr %65, align 4, !tbaa !40, !range !29, !noundef !30
  %67 = trunc i8 %66 to i1
  br i1 %67, label %68, label %73

68:                                               ; preds = %64
  %69 = load ptr, ptr %13, align 8, !tbaa !16
  %70 = getelementptr inbounds ptr, ptr %69, i64 14
  %71 = load ptr, ptr %70, align 8
  %72 = call noundef zeroext i1 %71(ptr noundef nonnull align 8 dereferenceable(141) %13)
  br label %73

73:                                               ; preds = %68, %64
  %74 = phi i1 [ false, %64 ], [ %72, %68 ]
  %75 = select i1 %74, double 1.000000e+00, double 1.250000e+00
  br label %76

76:                                               ; preds = %73, %63
  %77 = phi double [ 2.000000e+00, %63 ], [ %75, %73 ]
  %78 = fptrunc double %77 to float
  %79 = getelementptr inbounds nuw %"class.net::QuicBandwidth", ptr %12, i32 0, i32 0
  %80 = load i64, ptr %79, align 8
  %81 = call i64 @_ZN3netmlENS_13QuicBandwidthEf(i64 %80, float noundef %78)
  %82 = getelementptr inbounds nuw %"class.net::QuicBandwidth", ptr %3, i32 0, i32 0
  store i64 %81, ptr %82, align 8
  store i32 1, ptr %11, align 4
  br label %83

83:                                               ; preds = %76, %53
  call void @llvm.lifetime.end.p0(i64 8, ptr %8) #13
  call void @llvm.lifetime.end.p0(i64 16, ptr %6) #13
  %84 = getelementptr inbounds nuw %"class.net::QuicBandwidth", ptr %3, i32 0, i32 0
  %85 = load i64, ptr %84, align 8
  ret i64 %85
}