; Function Attrs: mustprogress uwtable
define i64 @_ZNK3net18TcpCubicSenderBase10PacingRateEm(ptr noundef nonnull align 8 dereferenceable(141) %0, i64 noundef %1) unnamed_addr #0 align 2 {
  %3 = alloca %"class.net::QuicBandwidth", align 8
  %4 = alloca %"class.net::QuicBandwidth", align 8
  %5 = getelementptr inbounds nuw i8, ptr %0, i64 88
  %6 = load ptr, ptr %5, align 8, !tbaa !6
  %7 = getelementptr inbounds nuw i8, ptr %6, i64 32
  %.sroa.0.0.copyload.i = load i64, ptr %7, align 8, !tbaa !37
  %.sroa.2.0..sroa_idx.i = getelementptr inbounds nuw i8, ptr %6, i64 40
  %.sroa.2.0.copyload.i = load i64, ptr %.sroa.2.0..sroa_idx.i, align 8, !tbaa !37
  %8 = icmp eq i64 %.sroa.2.0.copyload.i, 0
  br i1 %8, label %9, label %12

9:                                                ; preds = %2
  %10 = getelementptr inbounds nuw i8, ptr %6, i64 80
  %11 = load i64, ptr %10, align 8, !tbaa !55
  br label %12

12:                                               ; preds = %9, %2
  %.sroa.08.0 = phi i64 [ 0, %9 ], [ %.sroa.0.0.copyload.i, %2 ]
  %.sroa.5.0 = phi i64 [ %11, %9 ], [ %.sroa.2.0.copyload.i, %2 ]
  %13 = load ptr, ptr %0, align 8, !tbaa !3
  %14 = getelementptr inbounds nuw i8, ptr %13, i64 96
  %15 = load ptr, ptr %14, align 8
  %16 = tail call noundef i64 %15(ptr noundef nonnull align 8 dereferenceable(8) %0)
  %17 = tail call i64 @_ZN3net13QuicBandwidth21FromBytesAndTimeDeltaEmNS_8QuicTime5DeltaE(i64 noundef %16, i64 %.sroa.08.0, i64 %.sroa.5.0)
  %18 = getelementptr inbounds nuw i8, ptr %0, i64 139
  %19 = load i8, ptr %18, align 1, !tbaa !30, !range !47, !noundef !48
  %20 = trunc nuw i8 %19 to i1
  br i1 %20, label %21, label %32

21:                                               ; preds = %12
  %22 = load ptr, ptr %0, align 8, !tbaa !3
  %23 = getelementptr inbounds nuw i8, ptr %22, i64 96
  %24 = load ptr, ptr %23, align 8
  %25 = tail call noundef i64 %24(ptr noundef nonnull align 8 dereferenceable(8) %0)
  %26 = icmp ugt i64 %1, %25
  br i1 %26, label %27, label %32

27:                                               ; preds = %21
  call void @llvm.lifetime.start.p0(i64 8, ptr nonnull %4)
  %28 = sitofp i64 %17 to float
  %29 = fmul float %28, 7.500000e-01
  %30 = tail call noundef i64 @llroundf(float noundef %29) #15, !tbaa !58
  call void @_ZN3net13QuicBandwidthC1El(ptr noundef nonnull align 8 dereferenceable(8) %4, i64 noundef %30)
  %31 = load i64, ptr %4, align 8
  call void @llvm.lifetime.end.p0(i64 8, ptr nonnull %4)
  br label %53

32:                                               ; preds = %21, %12
  %33 = load ptr, ptr %0, align 8, !tbaa !3
  %34 = getelementptr inbounds nuw i8, ptr %33, i64 104
  %35 = load ptr, ptr %34, align 8
  %36 = tail call noundef zeroext i1 %35(ptr noundef nonnull align 8 dereferenceable(141) %0)
  br i1 %36, label %47, label %37

37:                                               ; preds = %32
  %38 = getelementptr inbounds nuw i8, ptr %0, i64 140
  %39 = load i8, ptr %38, align 4, !tbaa !29, !range !47, !noundef !48
  %40 = trunc nuw i8 %39 to i1
  br i1 %40, label %41, label %47

41:                                               ; preds = %37
  %42 = load ptr, ptr %0, align 8, !tbaa !3
  %43 = getelementptr inbounds nuw i8, ptr %42, i64 112
  %44 = load ptr, ptr %43, align 8
  %45 = tail call noundef zeroext i1 %44(ptr noundef nonnull align 8 dereferenceable(141) %0)
  %46 = select i1 %45, float 1.000000e+00, float 1.250000e+00
  br label %47

47:                                               ; preds = %37, %41, %32
  %48 = phi float [ 2.000000e+00, %32 ], [ 1.250000e+00, %37 ], [ %46, %41 ]
  call void @llvm.lifetime.start.p0(i64 8, ptr nonnull %3)
  %49 = sitofp i64 %17 to float
  %50 = fmul float %48, %49
  %51 = tail call noundef i64 @llroundf(float noundef %50) #15, !tbaa !58
  call void @_ZN3net13QuicBandwidthC1El(ptr noundef nonnull align 8 dereferenceable(8) %3, i64 noundef %51)
  %52 = load i64, ptr %3, align 8
  call void @llvm.lifetime.end.p0(i64 8, ptr nonnull %3)
  br label %53

53:                                               ; preds = %47, %27
  %.sroa.05.0 = phi i64 [ %31, %27 ], [ %52, %47 ]
  ret i64 %.sroa.05.0
}